(lp0
(lp1
S'/Users/willhughes/Dropbox/Backgrounds/sR8PT.jpg'
p2
aS'/Users/willhughes/Dropbox/Backgrounds/1287690545709.jpg'
p3
aa(lp4
S'/Users/willhughes/Dropbox/Backgrounds/wallpaper-524150.jpg'
p5
aS'/Users/willhughes/Dropbox/Backgrounds/87534098572345345.jpg'
p6
aS'/Users/willhughes/Dropbox/Backgrounds/1284318659743.jpg'
p7
aa(lp8
S'/Users/willhughes/Dropbox/Backgrounds/wallpaper-18584.jpg'
p9
aS'/Users/willhughes/Dropbox/Backgrounds/1285211233958.jpg'
p10
aa(lp11
S'/Users/willhughes/Dropbox/Backgrounds/1287880907796.jpg'
p12
aS'/Users/willhughes/Dropbox/Backgrounds/1284605756322.jpg'
p13
aS'/Users/willhughes/Dropbox/Backgrounds/1283725534178.jpg'
p14
aa(lp15
S'/Users/willhughes/Dropbox/Backgrounds/H7ycb.jpg'
p16
aS'/Users/willhughes/Dropbox/Backgrounds/1881_orionnebula_1920x1200.jpg'
p17
aa(lp18
S'/Users/willhughes/Dropbox/Backgrounds/wallpaper-166224.jpg'
p19
aS'/Users/willhughes/Dropbox/Backgrounds/1285246692799.jpg'
p20
aa(lp21
S'/Users/willhughes/Dropbox/Backgrounds/T77rq.jpg'
p22
aS'/Users/willhughes/Dropbox/Backgrounds/2032_enlightenment_1920x1200.jpg'
p23
aa(lp24
S'/Users/willhughes/Dropbox/Backgrounds/1303870832861.jpg'
p25
aS'/Users/willhughes/Dropbox/Backgrounds/1301608835826.jpg'
p26
aa(lp27
S'/Users/willhughes/Dropbox/Backgrounds/2352_bahamiancloudbreak_1920x1200.jpg'
p28
aS'/Users/willhughes/Dropbox/Backgrounds/02352_bahamiancloudbreak_1920x1200.jpg'
p29
aa(lp30
S'/Users/willhughes/Dropbox/Backgrounds/1287892233619.jpg'
p31
aS'/Users/willhughes/Dropbox/Backgrounds/1240768518411.jpg'
p32
aa(lp33
S'/Users/willhughes/Dropbox/Backgrounds/2193_themonastery_1920x1200.jpg'
p34
aS'/Users/willhughes/Dropbox/Backgrounds/02193_themonastery_1920x1200.jpg'
p35
aa(lp36
S'/Users/willhughes/Dropbox/Backgrounds/1304272276491.jpg'
p37
aS'/Users/willhughes/Dropbox/Backgrounds/1285237949838.jpg'
p38
aa(lp39
S'/Users/willhughes/Dropbox/Backgrounds/1301257740304.jpg'
p40
aS'/Users/willhughes/Dropbox/Backgrounds/1285912711028.jpg'
p41
aa(lp42
S'/Users/willhughes/Dropbox/Backgrounds/wallpaper-547414.jpg'
p43
aS'/Users/willhughes/Dropbox/Backgrounds/O21cG.jpg'
p44
aS'/Users/willhughes/Dropbox/Backgrounds/6YQ89.jpg'
p45
aa(lp46
S'/Users/willhughes/Dropbox/Backgrounds/1300856262049.jpg'
p47
aS'/Users/willhughes/Dropbox/Backgrounds/1285122835568.jpg'
p48
aa(lp49
S'/Users/willhughes/Dropbox/Backgrounds/1303904328826.jpg'
p50
aS'/Users/willhughes/Dropbox/Backgrounds/1302879999483.jpg'
p51
aa(lp52
S'/Users/willhughes/Dropbox/Backgrounds/wallpaper-525766.jpg'
p53
aS'/Users/willhughes/Dropbox/Backgrounds/wallpaper-524163.jpg'
p54
aS'/Users/willhughes/Dropbox/Backgrounds/Loivq.jpg'
p55
aa(lp56
S'/Users/willhughes/Dropbox/Backgrounds/1286768551304.jpg'
p57
aS'/Users/willhughes/Dropbox/Backgrounds/1285896628314.jpg'
p58
aa(lp59
S'/Users/willhughes/Dropbox/Backgrounds/1297639394712.jpg'
p60
aS'/Users/willhughes/Dropbox/Backgrounds/1285322550763.jpg'
p61
aa(lp62
S'/Users/willhughes/Dropbox/Backgrounds/1307209832941.jpg'
p63
aS'/Users/willhughes/Dropbox/Backgrounds/1285981469990.jpg'
p64
aa(lp65
S'/Users/willhughes/Dropbox/Backgrounds/1303744487045.jpg'
p66
aS'/Users/willhughes/Dropbox/Backgrounds/1284651877952.jpg'
p67
aa(lp68
S'/Users/willhughes/Dropbox/Backgrounds/1288390363788.jpg'
p69
aS'/Users/willhughes/Dropbox/Backgrounds/1284503968084.jpg'
p70
aa(lp71
S'/Users/willhughes/Dropbox/Backgrounds/vSpNl.jpg'
p72
aS'/Users/willhughes/Dropbox/Backgrounds/jj0As.jpg'
p73
aS'/Users/willhughes/Dropbox/Backgrounds/bCYeT.jpg'
p74
aS'/Users/willhughes/Dropbox/Backgrounds/apQ8O.jpg'
p75
aS'/Users/willhughes/Dropbox/Backgrounds/1301609326224.jpg'
p76
aS'/Users/willhughes/Dropbox/Backgrounds/1299728654131.jpg'
p77
aa(lp78
S'/Users/willhughes/Dropbox/Backgrounds/wallpaper-249764.jpg'
p79
aS'/Users/willhughes/Dropbox/Backgrounds/wallpaper-249749.jpg'
p80
aa(lp81
S'/Users/willhughes/Dropbox/Backgrounds/1301421336219.jpg'
p82
aS'/Users/willhughes/Dropbox/Backgrounds/1259455542521.jpg'
p83
aa(lp84
S'/Users/willhughes/Dropbox/Backgrounds/wallpaper-730499.jpg'
p85
aS'/Users/willhughes/Dropbox/Backgrounds/1302895831501.jpg'
p86
aa(lp87
S'/Users/willhughes/Dropbox/Backgrounds/HD Wallpapers Wide Pack (13).jpg'
p88
aS'/Users/willhughes/Dropbox/Backgrounds/2017_stillwaters_1920x1200.jpg'
p89
aa(lp90
S'/Users/willhughes/Dropbox/Backgrounds/1302855813614.jpg'
p91
aS'/Users/willhughes/Dropbox/Backgrounds/1285018035597.jpg'
p92
aa(lp93
S'/Users/willhughes/Dropbox/Backgrounds/chewall_1200p.jpg'
p94
aS'/Users/willhughes/Dropbox/Backgrounds/1304403282832.jpg'
p95
aa(lp96
S'/Users/willhughes/Dropbox/Backgrounds/1304464077027.jpg'
p97
aS'/Users/willhughes/Dropbox/Backgrounds/1287873777797.jpg'
p98
aa(lp99
S'/Users/willhughes/Dropbox/Backgrounds/Mano-2560x1600.jpg'
p100
aS'/Users/willhughes/Dropbox/Backgrounds/1302586129940.jpg'
p101
aa(lp102
S'/Users/willhughes/Dropbox/Backgrounds/1286737693434.jpg'
p103
aS'/Users/willhughes/Dropbox/Backgrounds/1285446430251.jpg'
p104
aa(lp105
S'/Users/willhughes/Dropbox/Backgrounds/1301541669048.jpg'
p106
aS'/Users/willhughes/Dropbox/Backgrounds/1285650236186.jpg'
p107
aa(lp108
S'/Users/willhughes/Dropbox/Backgrounds/1303916661939.jpg'
p109
aS'/Users/willhughes/Dropbox/Backgrounds/1285030261514.jpg'
p110
aa(lp111
S'/Users/willhughes/Dropbox/Backgrounds/1304055048467.jpg'
p112
aS'/Users/willhughes/Dropbox/Backgrounds/1302638868914.jpg'
p113
aa(lp114
S'/Users/willhughes/Dropbox/Backgrounds/1300856198981.jpg'
p115
aS'/Users/willhughes/Dropbox/Backgrounds/1256963755894.jpg'
p116
aa(lp117
S'/Users/willhughes/Dropbox/Backgrounds/1303754422523.jpg'
p118
aS'/Users/willhughes/Dropbox/Backgrounds/1286842245027.jpg'
p119
aa(lp120
S'/Users/willhughes/Dropbox/Backgrounds/i.mikeylicio23.us.jpg'
p121
aS'/Users/willhughes/Dropbox/Backgrounds/1295866402985.jpg'
p122
aa(lp123
S'/Users/willhughes/Dropbox/Backgrounds/DZLlH.jpg'
p124
aS'/Users/willhughes/Dropbox/Backgrounds/1285137221226.jpg'
p125
aa(lp126
S'/Users/willhughes/Dropbox/Backgrounds/2260_norwegiancoast_1920x1200.jpg'
p127
aS'/Users/willhughes/Dropbox/Backgrounds/02260_norwegiancoast_1920x1200.jpg'
p128
aa(lp129
S'/Users/willhughes/Dropbox/Backgrounds/wallpaper-724965.jpg'
p130
aS'/Users/willhughes/Dropbox/Backgrounds/1284681737513.jpg'
p131
aa(lp132
S'/Users/willhughes/Dropbox/Backgrounds/containment2560.jpg'
p133
aS'/Users/willhughes/Dropbox/Backgrounds/containment2560 (1).jpg'
p134
aa(lp135
S'/Users/willhughes/Dropbox/Backgrounds/1287887795460.jpg'
p136
aS'/Users/willhughes/Dropbox/Backgrounds/1285414228929.jpg'
p137
aa(lp138
S'/Users/willhughes/Dropbox/Backgrounds/kQIGs.jpg'
p139
aS'/Users/willhughes/Dropbox/Backgrounds/1303625722776.jpg'
p140
aa(lp141
S'/Users/willhughes/Dropbox/Backgrounds/1302930306190.jpg'
p142
aS'/Users/willhughes/Dropbox/Backgrounds/1286317711115.jpg'
p143
aa(lp144
S'/Users/willhughes/Dropbox/Backgrounds/1304272443629.jpg'
p145
aS'/Users/willhughes/Dropbox/Backgrounds/1302816912342.jpg'
p146
aS'/Users/willhughes/Dropbox/Backgrounds/1285464409854.jpg'
p147
aa(lp148
S'/Users/willhughes/Dropbox/Backgrounds/wallpaper-31057.jpg'
p149
aS'/Users/willhughes/Dropbox/Backgrounds/wallpaper-291874.jpg'
p150
aS'/Users/willhughes/Dropbox/Backgrounds/wallpaper-249766.jpg'
p151
aa(lp152
S'/Users/willhughes/Dropbox/Backgrounds/02355_bistibadlands_1920x1200.jpg'
p153
aS'/Users/willhughes/Dropbox/Backgrounds/02355_bistibadlands_1920x1200 (1).jpg'
p154
aa(lp155
S'/Users/willhughes/Dropbox/Backgrounds/MyNiR.jpg'
p156
aS'/Users/willhughes/Dropbox/Backgrounds/1285137182383.jpg'
p157
aa(lp158
S'/Users/willhughes/Dropbox/Backgrounds/2174_gazeduponbyangelsintheirflight_1920x1200.jpg'
p159
aS'/Users/willhughes/Dropbox/Backgrounds/02174_gazeduponbyangelsintheirflight_1920x1200.jpg'
p160
aa(lp161
S'/Users/willhughes/Dropbox/Backgrounds/1944_streamunderthebridge_1920x1200.jpg'
p162
aS'/Users/willhughes/Dropbox/Backgrounds/1303627233381.jpg'
p163
aa(lp164
S'/Users/willhughes/Dropbox/Backgrounds/1304349012866.jpg'
p165
aS'/Users/willhughes/Dropbox/Backgrounds/1302842951799.jpg'
p166
aS'/Users/willhughes/Dropbox/Backgrounds/1299539776258.jpg'
p167
aa(lp168
S'/Users/willhughes/Dropbox/Backgrounds/big_cc65be347afe9876d36af37c9483b571fcc4d25e.jpg'
p169
aS'/Users/willhughes/Dropbox/Backgrounds/1304108754967.jpg'
p170
aa(lp171
S'/Users/willhughes/Dropbox/Backgrounds/1304378959324.jpg'
p172
aS'/Users/willhughes/Dropbox/Backgrounds/1302815065612.jpg'
p173
aS'/Users/willhughes/Dropbox/Backgrounds/1285937253006.jpg'
p174
aa(lp175
S'/Users/willhughes/Dropbox/Backgrounds/big_35377c618cab9eebb045d630c34cc376355fcdbc.jpg'
p176
aS'/Users/willhughes/Dropbox/Backgrounds/1284881578419.jpg'
p177
aa(lp178
S'/Users/willhughes/Dropbox/Backgrounds/1285981767407.jpg'
p179
aS'/Users/willhughes/Dropbox/Backgrounds/1237095470734.jpg'
p180
aa(lp181
S'/Users/willhughes/Dropbox/Backgrounds/wallpaper-654588.jpg'
p182
aS'/Users/willhughes/Dropbox/Backgrounds/GsRdH.jpg'
p183
aa(lp184
S'/Users/willhughes/Dropbox/Backgrounds/1686_afternoonshadows_1920x1200.jpg'
p185
aS'/Users/willhughes/Dropbox/Backgrounds/1286735191072.jpg'
p186
aa(lp187
S'/Users/willhughes/Dropbox/Backgrounds/wallpaper-712947.jpg'
p188
aS'/Users/willhughes/Dropbox/Backgrounds/big_8bf04f2b23315c32397e80341e0ca5a3aaa5c922.jpg'
p189
aa(lp190
S'/Users/willhughes/Dropbox/Backgrounds/wallpaper-448527.jpg'
p191
aS'/Users/willhughes/Dropbox/Backgrounds/Gq2IQ.jpg'
p192
aS'/Users/willhughes/Dropbox/Backgrounds/1285024969608.jpg'
p193
aa(lp194
S'/Users/willhughes/Dropbox/Backgrounds/wallpaper-734408.jpg'
p195
aS'/Users/willhughes/Dropbox/Backgrounds/FuB1N.jpg'
p196
aa(lp197
S'/Users/willhughes/Dropbox/Backgrounds/130198978959d2.jpg'
p198
aS'/Users/willhughes/Dropbox/Backgrounds/1301989789592.jpg'
p199
aa(lp200
S'/Users/willhughes/Dropbox/Backgrounds/1301420443864.jpg'
p201
aS'/Users/willhughes/Dropbox/Backgrounds/01940_morainelake_1680x1050.jpg'
p202
aa(lp203
S'/Users/willhughes/Dropbox/Backgrounds/wallpaper-1020163.jpg'
p204
aS'/Users/willhughes/Dropbox/Backgrounds/1304288249168.jpg'
p205
aa(lp206
S'/Users/willhughes/Dropbox/Backgrounds/great_bayan_25x16.jpg'
p207
aS'/Users/willhughes/Dropbox/Backgrounds/d2dd78923ca30397f526b147afb3e7f8.jpg'
p208
aa(lp209
S'/Users/willhughes/Dropbox/Backgrounds/GmGPX.jpg'
p210
aS'/Users/willhughes/Dropbox/Backgrounds/2148_sunsetintuscanysaturdaymay23rd2009_1920x1200.jpg'
p211
aa(lp212
S'/Users/willhughes/Dropbox/Backgrounds/1302425130530.jpg'
p213
aS'/Users/willhughes/Dropbox/Backgrounds/1285428765842.jpg'
p214
aa(lp215
S'/Users/willhughes/Dropbox/Backgrounds/1301432735867.jpg'
p216
aS'/Users/willhughes/Dropbox/Backgrounds/1285170483541.jpg'
p217
aa(lp218
S'/Users/willhughes/Dropbox/Backgrounds/ZFdhf.jpg'
p219
aS'/Users/willhughes/Dropbox/Backgrounds/1285137440644.jpg'
p220
aa(lp221
S'/Users/willhughes/Dropbox/Backgrounds/em0zr.jpg'
p222
aS'/Users/willhughes/Dropbox/Backgrounds/1285421231353.jpg'
p223
aa(lp224
S'/Users/willhughes/Dropbox/Backgrounds/9ua2O.jpg'
p225
aS'/Users/willhughes/Dropbox/Backgrounds/2002_theopallake_1920x1200.jpg'
p226
aa(lp227
S'/Users/willhughes/Dropbox/Backgrounds/wallpaper-530894.jpg'
p228
aS'/Users/willhughes/Dropbox/Backgrounds/Connected-1920x1200.jpg'
p229
aa(lp230
S'/Users/willhughes/Dropbox/Backgrounds/o5eUA.jpg'
p231
aS'/Users/willhughes/Dropbox/Backgrounds/1303748252892.jpg'
p232
aa(lp233
S'/Users/willhughes/Dropbox/Backgrounds/1303711396400.jpg'
p234
aS'/Users/willhughes/Dropbox/Backgrounds/1284688196613.jpg'
p235
aa(lp236
S'/Users/willhughes/Dropbox/Backgrounds/5uDGG.jpg'
p237
aS'/Users/willhughes/Dropbox/Backgrounds/1830_lightning_1920x1200.jpg'
p238
aa(lp239
S'/Users/willhughes/Dropbox/Backgrounds/big_ca8fdcf8a852b05f64cd9ee6b24a2d56b7a8a0c4.jpg'
p240
aS'/Users/willhughes/Dropbox/Backgrounds/1306628139914.jpg'
p241
aa(lp242
S'/Users/willhughes/Dropbox/Backgrounds/SBpQk.jpg'
p243
aS'/Users/willhughes/Dropbox/Backgrounds/1986_goldencloudscape_1920x1200.jpg'
p244
aa(lp245
S'/Users/willhughes/Dropbox/Backgrounds/weather_1024x768.jpg'
p246
aS'/Users/willhughes/Dropbox/Backgrounds/EroNn.jpg'
p247
aa(lp248
S'/Users/willhughes/Dropbox/Backgrounds/2217_goldenstream_1920x1200.jpg'
p249
aS'/Users/willhughes/Dropbox/Backgrounds/12786862228.jpg'
p250
aa(lp251
S'/Users/willhughes/Dropbox/Backgrounds/1302199200558.jpg'
p252
aS'/Users/willhughes/Dropbox/Backgrounds/1286942936225.jpg'
p253
aa(lp254
S'/Users/willhughes/Dropbox/Backgrounds/XJEBL.jpg'
p255
aS'/Users/willhughes/Dropbox/Backgrounds/1302893145449.jpg'
p256
aa(lp257
S'/Users/willhughes/Dropbox/Backgrounds/p0p97.jpg'
p258
aS'/Users/willhughes/Dropbox/Backgrounds/2106_violentcrashingwaves_1920x1200.jpg'
p259
aa(lp260
S'/Users/willhughes/Dropbox/Backgrounds/vQwUq.jpg'
p261
aS'/Users/willhughes/Dropbox/Backgrounds/j6ENl.jpg'
p262
aa(lp263
S'/Users/willhughes/Dropbox/Backgrounds/2330_morainelakepanorama_1920x1200.jpg'
p264
aS'/Users/willhughes/Dropbox/Backgrounds/1301426212347.jpg'
p265
aS'/Users/willhughes/Dropbox/Backgrounds/02330_morainelakepanorama_1920x1200.jpg'
p266
aa(lp267
S'/Users/willhughes/Dropbox/Backgrounds/P3wqG.jpg'
p268
aS'/Users/willhughes/Dropbox/Backgrounds/2099_nebulae_1920x1200.jpg'
p269
aa(lp270
S'/Users/willhughes/Dropbox/Backgrounds/1302513357723.jpg'
p271
aS'/Users/willhughes/Dropbox/Backgrounds/1284687264300.jpg'
p272
aa(lp273
S'/Users/willhughes/Dropbox/Backgrounds/big_2640d081cc6db758eab625838483809dceb09889.jpg'
p274
aS'/Users/willhughes/Dropbox/Backgrounds/1287708365517.jpg'
p275
aa(lp276
S'/Users/willhughes/Dropbox/Backgrounds/2118_waterfall_1920x1200.jpg'
p277
aS'/Users/willhughes/Dropbox/Backgrounds/1302893972216.jpg'
p278
aa(lp279
S'/Users/willhughes/Dropbox/Backgrounds/eIvni.jpg'
p280
aS'/Users/willhughes/Dropbox/Backgrounds/1970_stormyskies_1920x1200.jpg'
p281
aa(lp282
S'/Users/willhughes/Dropbox/Backgrounds/txkUA.jpg'
p283
aS'/Users/willhughes/Dropbox/Backgrounds/2166_endeavourslaunch_1920x1200.jpg'
p284
aa(lp285
S'/Users/willhughes/Dropbox/Backgrounds/wallpaper-730802.jpg'
p286
aS'/Users/willhughes/Dropbox/Backgrounds/1798_homeworld_1920x1200.jpg'
p287
aa(lp288
S'/Users/willhughes/Dropbox/Backgrounds/1782_hilltopview_1920x1200.jpg'
p289
aS'/Users/willhughes/Dropbox/Backgrounds/1237140333892.jpg'
p290
aa(lp291
S'/Users/willhughes/Dropbox/Backgrounds/1293920085435.jpg'
p292
aS'/Users/willhughes/Dropbox/Backgrounds/1286807742081.jpg'
p293
aa(lp294
S'/Users/willhughes/Dropbox/Backgrounds/uC3se.jpg'
p295
aS'/Users/willhughes/Dropbox/Backgrounds/1302059894053.jpg'
p296
aa(lp297
S'/Users/willhughes/Dropbox/Backgrounds/Arcma.jpg'
p298
aS'/Users/willhughes/Dropbox/Backgrounds/2025_breakofdawn_1920x1200.jpg'
p299
aa(lp300
S'/Users/willhughes/Dropbox/Backgrounds/1301256891903.jpg'
p301
aS'/Users/willhughes/Dropbox/Backgrounds/1284918182077.jpg'
p302
aa(lp303
S'/Users/willhughes/Dropbox/Backgrounds/1305435155119.jpg'
p304
aS'/Users/willhughes/Dropbox/Backgrounds/1284851293184.jpg'
p305
aa(lp306
S'/Users/willhughes/Dropbox/Backgrounds/1305784214947.jpg'
p307
aS'/Users/willhughes/Dropbox/Backgrounds/1285031453948.jpg'
p308
aa(lp309
S'/Users/willhughes/Dropbox/Backgrounds/2qyEO.jpg'
p310
aS'/Users/willhughes/Dropbox/Backgrounds/1307407619148.jpg'
p311
aa(lp312
S'/Users/willhughes/Dropbox/Backgrounds/2246_sunsetovermoorea_1920x1200.jpg'
p313
aS'/Users/willhughes/Dropbox/Backgrounds/02246_sunsetovermoorea_1920x1200.jpg'
p314
aa(lp315
S'/Users/willhughes/Dropbox/Backgrounds/preview-8-40174.jpg'
p316
aS'/Users/willhughes/Dropbox/Backgrounds/1920x1200.jpg'
p317
aa(lp318
S'/Users/willhughes/Dropbox/Backgrounds/aCLEY.jpg'
p319
aS'/Users/willhughes/Dropbox/Backgrounds/1301466450796.jpg'
p320
aa(lp321
S'/Users/willhughes/Dropbox/Backgrounds/m7UUv.jpg'
p322
aS'/Users/willhughes/Dropbox/Backgrounds/1973_bluesunset_1920x1200.jpg'
p323
aa(lp324
S'/Users/willhughes/Dropbox/Backgrounds/pkINs.jpg'
p325
aS'/Users/willhughes/Dropbox/Backgrounds/P84TD.jpg'
p326
aa(lp327
S'/Users/willhughes/Dropbox/Backgrounds/1300272130133.jpg'
p328
aS'/Users/willhughes/Dropbox/Backgrounds/1285380800056.jpg'
p329
aa(lp330
S'/Users/willhughes/Dropbox/Backgrounds/Snail-1920x1200.jpg'
p331
aS'/Users/willhughes/Dropbox/Backgrounds/1302673153909.jpg'
p332
aa(lp333
S'/Users/willhughes/Dropbox/Backgrounds/big_2a5eebf5eb2d198d932793d02ae2f5e48d2eee21.jpg'
p334
aS'/Users/willhughes/Dropbox/Backgrounds/1285985646839.jpg'
p335
aa(lp336
S'/Users/willhughes/Dropbox/Backgrounds/1301556662291.jpg'
p337
aS'/Users/willhughes/Dropbox/Backgrounds/1301525071566.jpg'
p338
aa(lp339
S'/Users/willhughes/Dropbox/Backgrounds/2335_alpsteinbeforerain_1920x1200.jpg'
p340
aS'/Users/willhughes/Dropbox/Backgrounds/02335_alpsteinbeforerain_1920x1200.jpg'
p341
aa(lp342
S'/Users/willhughes/Dropbox/Backgrounds/1284913426992.jpg'
p343
aS'/Users/willhughes/Dropbox/Backgrounds/1284913280051.jpg'
p344
aa(lp345
S'/Users/willhughes/Dropbox/Backgrounds/wallpaper-683357.jpg'
p346
aS'/Users/willhughes/Dropbox/Backgrounds/1294755393744.jpg'
p347
aa(lp348
S'/Users/willhughes/Dropbox/Backgrounds/F3m8g.jpg'
p349
aS'/Users/willhughes/Dropbox/Backgrounds/1301127964854.jpg'
p350
aa(lp351
S'/Users/willhughes/Dropbox/Backgrounds/1302177026803.jpg'
p352
aS'/Users/willhughes/Dropbox/Backgrounds/1285452489395.jpg'
p353
aa(lp354
S'/Users/willhughes/Dropbox/Backgrounds/1288378088699.jpg'
p355
aS'/Users/willhughes/Dropbox/Backgrounds/1284740344916.jpg'
p356
aa(lp357
S'/Users/willhughes/Dropbox/Backgrounds/RYUgr.jpg'
p358
aS'/Users/willhughes/Dropbox/Backgrounds/1286816891839.jpg'
p359
aa(lp360
S'/Users/willhughes/Dropbox/Backgrounds/1303619642758.jpg'
p361
aS'/Users/willhughes/Dropbox/Backgrounds/1302856144883.jpg'
p362
aa(lp363
S'/Users/willhughes/Dropbox/Backgrounds/1302551143663.jpg'
p364
aS'/Users/willhughes/Dropbox/Backgrounds/1300578591123.jpg'
p365
aa(lp366
S'/Users/willhughes/Dropbox/Backgrounds/9HHJH.jpg'
p367
aS'/Users/willhughes/Dropbox/Backgrounds/6Ucf9.jpg'
p368
aS'/Users/willhughes/Dropbox/Backgrounds/1602_sandringhambeach_1920x1200.jpg'
p369
aa(lp370
S'/Users/willhughes/Dropbox/Backgrounds/1307166473098.jpg'
p371
aS'/Users/willhughes/Dropbox/Backgrounds/1301255980872.jpg'
p372
aa(lp373
S'/Users/willhughes/Dropbox/Backgrounds/ELO8p.jpg'
p374
aS'/Users/willhughes/Dropbox/Backgrounds/1285017407240.jpg'
p375
aa(lp376
S'/Users/willhughes/Dropbox/Backgrounds/45924.jpg'
p377
aS'/Users/willhughes/Dropbox/Backgrounds/2773715076_6dddc5462e_o.jpg'
p378
aa(lp379
S'/Users/willhughes/Dropbox/Backgrounds/dtg21920.jpg'
p380
aS'/Users/willhughes/Dropbox/Backgrounds/dtg2.jpg'
p381
aa(lp382
S'/Users/willhughes/Dropbox/Backgrounds/1307931715749.jpg'
p383
aS'/Users/willhughes/Dropbox/Backgrounds/1301605201165.jpg'
p384
aa(lp385
S'/Users/willhughes/Dropbox/Backgrounds/wallpaper-249444.jpg'
p386
aS'/Users/willhughes/Dropbox/Backgrounds/joker193-1920x1080.jpg'
p387
aa(lp388
S'/Users/willhughes/Dropbox/Backgrounds/Ckq2y.jpg'
p389
aS'/Users/willhughes/Dropbox/Backgrounds/1284690148562.jpg'
p390
aa(lp391
S'/Users/willhughes/Dropbox/Backgrounds/1301255765976.jpg'
p392
aS'/Users/willhughes/Dropbox/Backgrounds/1287716924674.jpg'
p393
aa(lp394
S'/Users/willhughes/Dropbox/Backgrounds/1421_elcapitan_1920x1200.jpg'
p395
aS'/Users/willhughes/Dropbox/Backgrounds/1297643392209.jpg'
p396
aa(lp397
S'/Users/willhughes/Dropbox/Backgrounds/big_069f6e047a7381a59cd39c9286eaf70061c0f465.jpg'
p398
aS'/Users/willhughes/Dropbox/Backgrounds/1286566162641.jpg'
p399
aS'/Users/willhughes/Dropbox/Backgrounds/1284902690131.jpg'
p400
aS'/Users/willhughes/Dropbox/Backgrounds/1284780406435.jpg'
p401
aa(lp402
S'/Users/willhughes/Dropbox/Backgrounds/1299539597233.jpg'
p403
aS'/Users/willhughes/Dropbox/Backgrounds/1287888135140.jpg'
p404
aa(lp405
S'/Users/willhughes/Dropbox/Backgrounds/1301211389066.jpg'
p406
aS'/Users/willhughes/Dropbox/Backgrounds/1289518177664.jpg'
p407
aa(lp408
S'/Users/willhughes/Dropbox/Backgrounds/nxs5Y.jpg'
p409
aS'/Users/willhughes/Dropbox/Backgrounds/hBb54.jpg'
p410
aa(lp411
S'/Users/willhughes/Dropbox/Backgrounds/r10DL.jpg'
p412
aS'/Users/willhughes/Dropbox/Backgrounds/q28kT.jpg'
p413
aa(lp414
S'/Users/willhughes/Dropbox/Backgrounds/big_67622e9ae64f0048296b4637e9bd13a9210b2e92.jpg'
p415
aS'/Users/willhughes/Dropbox/Backgrounds/1286576979156.jpg'
p416
aa(lp417
S'/Users/willhughes/Dropbox/Backgrounds/2247_lizard_1920x1200.jpg'
p418
aS'/Users/willhughes/Dropbox/Backgrounds/02247_lizard_1920x1200.jpg'
p419
aa(lp420
S'/Users/willhughes/Dropbox/Backgrounds/1299383720232.jpg'
p421
aS'/Users/willhughes/Dropbox/Backgrounds/1289350239026.jpg'
p422
aa(lp423
S'/Users/willhughes/Dropbox/Backgrounds/1305411869010.jpg'
p424
aS'/Users/willhughes/Dropbox/Backgrounds/1302188409538.jpg'
p425
aa(lp426
S'/Users/willhughes/Dropbox/Backgrounds/xlpox.jpg'
p427
aS'/Users/willhughes/Dropbox/Backgrounds/jRkEi.jpg'
p428
aS'/Users/willhughes/Dropbox/Backgrounds/2Nuze.jpg'
p429
aa(lp430
S'/Users/willhughes/Dropbox/Backgrounds/1301514157876.jpg'
p431
aS'/Users/willhughes/Dropbox/Backgrounds/1300666917627.jpg'
p432
aa(lp433
S'/Users/willhughes/Dropbox/Backgrounds/ws_First_Snow_1920x1200.jpg'
p434
aS'/Users/willhughes/Dropbox/Backgrounds/1284310582876.jpg'
p435
aa(lp436
S'/Users/willhughes/Dropbox/Backgrounds/r4tEc.jpg'
p437
aS'/Users/willhughes/Dropbox/Backgrounds/2124_tuscansunsetmondaymay25th2009_1920x1200.jpg'
p438
aa(lp439
S'/Users/willhughes/Dropbox/Backgrounds/1303832022803.jpg'
p440
aS'/Users/willhughes/Dropbox/Backgrounds/1302009022700.jpg'
p441
aS'/Users/willhughes/Dropbox/Backgrounds/1285004730242.jpg'
p442
aa.